target datalayout = "e-m:e-p270:32:32-p271:32:32-p272:64:64-i64:64-i128:128-f80:128-n8:16:32:64-S128"
target triple = "x86_64-pc-linux-gnu"

%union.pthread_mutex_t = type { %struct.__pthread_mutex_s }
%struct.__pthread_mutex_s = type { i32, i32, i32, i32, i32, i16, i16, %struct.__pthread_internal_list }
%struct.__pthread_internal_list = type { ptr, ptr }
%struct.slurmdb_federation_rec_t = type { ptr, i32, ptr }
%struct.slurmdb_cluster_rec = type { ptr, i16, i64, %struct.sockaddr_storage, ptr, i32, i16, ptr, i16, %struct.slurmdb_cluster_fed_t, i32, %union.pthread_mutex_t, ptr, ptr, ptr, i16, ptr, ptr }
%struct.sockaddr_storage = type { i16, [118 x i8], i64 }
%struct.slurmdb_cluster_fed_t = type { ptr, i32, ptr, ptr, ptr, i32, i8, i8 }

@fed_mgr_fed_rec = dso_local global ptr null, align 8
@fed_mgr_cluster_rec = dso_local global ptr null, align 8
@.str.182 = private unnamed_addr constant [47 x i8] c"federated job arrays must run on local cluster\00", align 1

; Function Attrs: nounwind uwtable
define internal i64 @_get_all_sibling_bits() #0 {
  %1 = alloca ptr, align 8
  %2 = alloca ptr, align 8
  %3 = alloca i64, align 8
  call void @llvm.lifetime.start.p0(i64 8, ptr %1) #9
  call void @llvm.lifetime.start.p0(i64 8, ptr %2) #9
  call void @llvm.lifetime.start.p0(i64 8, ptr %3) #9
  store i64 0, ptr %3, align 8
  %4 = load ptr, ptr @fed_mgr_fed_rec, align 8
  %5 = icmp ne ptr %4, null
  br i1 %5, label %6, label %11

6:                                                ; preds = %0
  %7 = load ptr, ptr @fed_mgr_fed_rec, align 8
  %8 = getelementptr inbounds nuw %struct.slurmdb_federation_rec_t, ptr %7, i32 0, i32 2
  %9 = load ptr, ptr %8, align 8
  %10 = icmp ne ptr %9, null
  br i1 %10, label %12, label %11

11:                                               ; preds = %6, %0
  br label %33

12:                                               ; preds = %6
  %13 = load ptr, ptr @fed_mgr_fed_rec, align 8
  %14 = getelementptr inbounds nuw %struct.slurmdb_federation_rec_t, ptr %13, i32 0, i32 2
  %15 = load ptr, ptr %14, align 8
  %16 = call ptr @list_iterator_create(ptr noundef %15)
  store ptr %16, ptr %1, align 8
  br label %17

17:                                               ; preds = %21, %12
  %18 = load ptr, ptr %1, align 8
  %19 = call ptr @list_next(ptr noundef %18)
  store ptr %19, ptr %2, align 8
  %20 = icmp ne ptr %19, null
  br i1 %20, label %21, label %31

21:                                               ; preds = %17
  %22 = load ptr, ptr %2, align 8
  %23 = getelementptr inbounds nuw %struct.slurmdb_cluster_rec, ptr %22, i32 0, i32 9
  %24 = getelementptr inbounds nuw %struct.slurmdb_cluster_fed_t, ptr %23, i32 0, i32 1
  %25 = load i32, ptr %24, align 8
  %26 = sub i32 %25, 1
  %27 = zext i32 %26 to i64
  %28 = shl i64 1, %27
  %29 = load i64, ptr %3, align 8
  %30 = or i64 %29, %28
  store i64 %30, ptr %3, align 8
  br label %17, !llvm.loop !65

31:                                               ; preds = %17
  %32 = load ptr, ptr %1, align 8
  call void @list_iterator_destroy(ptr noundef %32)
  br label %33

33:                                               ; preds = %31, %11
  %34 = load i64, ptr %3, align 8
  call void @llvm.lifetime.end.p0(i64 8, ptr %3) #9
  call void @llvm.lifetime.end.p0(i64 8, ptr %2) #9
  call void @llvm.lifetime.end.p0(i64 8, ptr %1) #9
  ret i64 %34
}

; Function Attrs: nounwind uwtable
define internal i64 @_get_viable_sibs(ptr noundef %0, i64 noundef %1, i1 noundef zeroext %2, ptr noundef %3) #0 {
  %5 = alloca ptr, align 8
  %6 = alloca i64, align 8
  %7 = alloca i8, align 1
  %8 = alloca ptr, align 8
  %9 = alloca i64, align 8
  %10 = alloca i32, align 4
  store ptr %0, ptr %5, align 8
  store i64 %1, ptr %6, align 8
  %11 = zext i1 %2 to i8
  store i8 %11, ptr %7, align 1
  store ptr %3, ptr %8, align 8
  call void @llvm.lifetime.start.p0(i64 8, ptr %9) #9
  %12 = call i64 @_get_all_sibling_bits()
  store i64 %12, ptr %9, align 8
  %13 = load ptr, ptr %5, align 8
  %14 = icmp ne ptr %13, null
  br i1 %14, label %15, label %18

15:                                               ; preds = %4
  %16 = load ptr, ptr %5, align 8
  %17 = call i32 @_validate_cluster_names(ptr noundef %16, ptr noundef %9)
  br label %18

18:                                               ; preds = %15, %4
  %19 = load i64, ptr %6, align 8
  %20 = icmp ne i64 %19, 0
  br i1 %20, label %21, label %25

21:                                               ; preds = %18
  %22 = load i64, ptr %6, align 8
  %23 = load i64, ptr %9, align 8
  %24 = and i64 %23, %22
  store i64 %24, ptr %9, align 8
  br label %25

25:                                               ; preds = %21, %18
  %26 = load ptr, ptr @fed_mgr_fed_rec, align 8
  %27 = getelementptr inbounds nuw %struct.slurmdb_federation_rec_t, ptr %26, i32 0, i32 2
  %28 = load ptr, ptr %27, align 8
  %29 = call i32 @list_for_each(ptr noundef %28, ptr noundef @_remove_inactive_sibs, ptr noundef %9)
  %30 = load i8, ptr %7, align 1, !range !11, !noundef !12
  %31 = trunc i8 %30 to i1
  br i1 %31, label %32, label %68

32:                                               ; preds = %25
  call void @llvm.lifetime.start.p0(i64 4, ptr %10) #9
  %33 = load i64, ptr %9, align 8
  %34 = load ptr, ptr @fed_mgr_cluster_rec, align 8
  %35 = getelementptr inbounds nuw %struct.slurmdb_cluster_rec, ptr %34, i32 0, i32 9
  %36 = getelementptr inbounds nuw %struct.slurmdb_cluster_fed_t, ptr %35, i32 0, i32 1
  %37 = load i32, ptr %36, align 8
  %38 = sub i32 %37, 1
  %39 = zext i32 %38 to i64
  %40 = shl i64 1, %39
  %41 = and i64 %33, %40
  %42 = trunc i64 %41 to i32
  store i32 %42, ptr %10, align 4
  %43 = load i64, ptr %9, align 8
  %44 = icmp ne i64 %43, 0
  br i1 %44, label %45, label %65

45:                                               ; preds = %32
  %46 = load i32, ptr %10, align 4
  %47 = icmp ne i32 %46, 0
  br i1 %47, label %65, label %48

48:                                               ; preds = %45
  br label %49

49:                                               ; preds = %48
  br label %50

50:                                               ; preds = %49
  %51 = call i32 @get_log_level()
  %52 = icmp sge i32 %51, 3
  br i1 %52, label %53, label %54

53:                                               ; preds = %50
  call void (i32, ptr, ...) @log_var(i32 noundef 3, ptr noundef @.str.182)
  br label %54

54:                                               ; preds = %53, %50
  br label %55

55:                                               ; preds = %54
  br label %56

56:                                               ; preds = %55
  br label %57

57:                                               ; preds = %56
  br label %58

58:                                               ; preds = %57
  %59 = load ptr, ptr %8, align 8
  %60 = icmp ne ptr %59, null
  br i1 %60, label %61, label %64

61:                                               ; preds = %58
  %62 = load ptr, ptr %8, align 8
  call void @slurm_xfree(ptr noundef %62)
  %63 = load ptr, ptr %8, align 8
  call void (ptr, ptr, ...) @_xstrfmtcat(ptr noundef %63, ptr noundef @.str.182)
  br label %64

64:                                               ; preds = %61, %58
  br label %65

65:                                               ; preds = %64, %45, %32
  %66 = load i32, ptr %10, align 4
  %67 = zext i32 %66 to i64
  store i64 %67, ptr %9, align 8
  call void @llvm.lifetime.end.p0(i64 4, ptr %10) #9
  br label %68

68:                                               ; preds = %65, %25
  %69 = load i64, ptr %9, align 8
  call void @llvm.lifetime.end.p0(i64 8, ptr %9) #9
  ret i64 %69
}