; Function Attrs: nounwind uwtable
define internal fastcc i64 @_get_viable_sibs(ptr noundef %0, i64 noundef %1, i1 noundef zeroext %2, ptr noundef %3) unnamed_addr #0 {
  %5 = alloca i64, align 8
  call void @llvm.lifetime.start.p0(i64 8, ptr nonnull %5) #16
  %6 = load ptr, ptr @fed_mgr_fed_rec, align 8
  %.not.i = icmp eq ptr %6, null
  br i1 %.not.i, label %_get_all_sibling_bits.exit, label %7

7:                                                ; preds = %4
  %8 = getelementptr inbounds nuw i8, ptr %6, i64 16
  %9 = load ptr, ptr %8, align 8
  %.not7.i = icmp eq ptr %9, null
  br i1 %.not7.i, label %_get_all_sibling_bits.exit, label %10

10:                                               ; preds = %7
  %11 = tail call ptr @list_iterator_create(ptr noundef nonnull %9) #16
  %12 = tail call ptr @list_next(ptr noundef %11) #16
  %.not89.i = icmp eq ptr %12, null
  br i1 %.not89.i, label %._crit_edge.i, label %.lr.ph.i

.lr.ph.i:                                         ; preds = %10, %.lr.ph.i
  %13 = phi ptr [ %20, %.lr.ph.i ], [ %12, %10 ]
  %.110.i = phi i64 [ %19, %.lr.ph.i ], [ 0, %10 ]
  %14 = getelementptr inbounds nuw i8, ptr %13, i64 192
  %15 = load i32, ptr %14, align 8
  %16 = add i32 %15, -1
  %17 = zext nneg i32 %16 to i64
  %18 = shl nuw i64 1, %17
  %19 = or i64 %18, %.110.i
  %20 = tail call ptr @list_next(ptr noundef %11) #16
  %.not8.i = icmp eq ptr %20, null
  br i1 %.not8.i, label %._crit_edge.i, label %.lr.ph.i, !llvm.loop !31

._crit_edge.i:                                    ; preds = %.lr.ph.i, %10
  %.1.lcssa.i = phi i64 [ 0, %10 ], [ %19, %.lr.ph.i ]
  tail call void @list_iterator_destroy(ptr noundef %11) #16
  br label %_get_all_sibling_bits.exit

_get_all_sibling_bits.exit:                       ; preds = %4, %7, %._crit_edge.i
  %.0.i = phi i64 [ %.1.lcssa.i, %._crit_edge.i ], [ 0, %7 ], [ 0, %4 ]
  store i64 %.0.i, ptr %5, align 8
  %.not = icmp eq ptr %0, null
  br i1 %.not, label %23, label %21

21:                                               ; preds = %_get_all_sibling_bits.exit
  %22 = call fastcc i32 @_validate_cluster_names(ptr noundef nonnull %0, ptr noundef nonnull %5)
  br label %23

23:                                               ; preds = %21, %_get_all_sibling_bits.exit
  %.not12 = icmp eq i64 %1, 0
  br i1 %.not12, label %27, label %24

24:                                               ; preds = %23
  %25 = load i64, ptr %5, align 8
  %26 = and i64 %25, %1
  store i64 %26, ptr %5, align 8
  br label %27

27:                                               ; preds = %24, %23
  %28 = load ptr, ptr @fed_mgr_fed_rec, align 8
  %29 = getelementptr inbounds nuw i8, ptr %28, i64 16
  %30 = load ptr, ptr %29, align 8
  %31 = call i32 @list_for_each(ptr noundef %30, ptr noundef nonnull @_remove_inactive_sibs, ptr noundef nonnull %5) #16
  %.pre = load i64, ptr %5, align 8
  br i1 %2, label %32, label %49

32:                                               ; preds = %27
  %33 = load ptr, ptr @fed_mgr_cluster_rec, align 8
  %34 = getelementptr inbounds nuw i8, ptr %33, i64 192
  %35 = load i32, ptr %34, align 8
  %36 = add i32 %35, -1
  %37 = zext nneg i32 %36 to i64
  %38 = shl nuw i64 1, %37
  %39 = icmp eq i64 %.pre, 0
  %40 = and i64 %.pre, 4294967295
  %41 = and i64 %40, %38
  %42 = icmp ne i64 %41, 0
  %or.cond = select i1 %39, i1 true, i1 %42
  br i1 %or.cond, label %49, label %43

43:                                               ; preds = %32
  %44 = call i32 @get_log_level() #16
  %45 = icmp sgt i32 %44, 2
  br i1 %45, label %46, label %47

46:                                               ; preds = %43
  call void (i32, ptr, ...) @log_var(i32 noundef 3, ptr noundef nonnull @.str.182) #16
  br label %47

47:                                               ; preds = %46, %43
  %.not13 = icmp eq ptr %3, null
  br i1 %.not13, label %49, label %48

48:                                               ; preds = %47
  call void @slurm_xfree(ptr noundef nonnull %3) #16
  call void (ptr, ptr, ...) @_xstrfmtcat(ptr noundef nonnull %3, ptr noundef nonnull @.str.182) #16
  br label %49

49:                                               ; preds = %32, %48, %47, %27
  %50 = phi i64 [ %.pre, %27 ], [ %41, %47 ], [ %41, %48 ], [ %41, %32 ]
  call void @llvm.lifetime.end.p0(i64 8, ptr nonnull %5) #16
  ret i64 %50
}